target datalayout = "e-m:e-p270:32:32-p271:32:32-p272:64:64-i64:64-i128:128-f80:128-n8:16:32:64-S128"
target triple = "x86_64-pc-linux-gnu"

%"struct.llvm::object::WasmObjectFile::ReadContext" = type { ptr, ptr, ptr }
%"struct.llvm::wasm::WasmLimits" = type { i8, i64, i64 }

@.str.154 = private unnamed_addr constant [31 x i8] c"LEB is outside Varuint32 range\00", align 1
@.str.155 = private unnamed_addr constant [36 x i8] c"malformed uleb128, extends past end\00", align 1
@.str.156 = private unnamed_addr constant [27 x i8] c"uleb128 too big for uint64\00", align 1

; Function Attrs: mustprogress nounwind uwtable
define linkonce_odr hidden noundef i64 @_ZN4llvm13decodeULEB128EPKhPjS1_PPKc(ptr noundef %0, ptr noundef %1, ptr noundef %2, ptr noundef %3) #0 comdat {
  %5 = alloca ptr, align 8
  %6 = alloca ptr, align 8
  %7 = alloca ptr, align 8
  %8 = alloca ptr, align 8
  %9 = alloca ptr, align 8
  %10 = alloca i64, align 8
  %11 = alloca i32, align 4
  %12 = alloca i64, align 8
  store ptr %0, ptr %5, align 8
  store ptr %1, ptr %6, align 8
  store ptr %2, ptr %7, align 8
  store ptr %3, ptr %8, align 8
  %13 = load ptr, ptr %5, align 8
  store ptr %13, ptr %9, align 8
  store i64 0, ptr %10, align 8
  store i32 0, ptr %11, align 4
  br label %14

14:                                               ; preds = %66, %4
  %15 = load ptr, ptr %5, align 8
  %16 = load ptr, ptr %7, align 8
  %17 = icmp eq ptr %15, %16
  br i1 %17, label %18, label %24

18:                                               ; preds = %14
  %19 = load ptr, ptr %8, align 8
  %20 = icmp ne ptr %19, null
  br i1 %20, label %21, label %23

21:                                               ; preds = %18
  %22 = load ptr, ptr %8, align 8
  store ptr @.str.155, ptr %22, align 8
  br label %23

23:                                               ; preds = %21, %18
  store i64 0, ptr %10, align 8
  br label %72

24:                                               ; preds = %14
  %25 = load ptr, ptr %5, align 8
  %26 = load i8, ptr %25, align 1
  %27 = zext i8 %26 to i32
  %28 = and i32 %27, 127
  %29 = sext i32 %28 to i64
  store i64 %29, ptr %12, align 8
  %30 = load i32, ptr %11, align 4
  %31 = icmp uge i32 %30, 63
  br i1 %31, label %32, label %57

32:                                               ; preds = %24
  %33 = load i32, ptr %11, align 4
  %34 = icmp eq i32 %33, 63
  br i1 %34, label %35, label %45

35:                                               ; preds = %32
  %36 = load i64, ptr %12, align 8
  %37 = load i32, ptr %11, align 4
  %38 = zext i32 %37 to i64
  %39 = shl i64 %36, %38
  %40 = load i32, ptr %11, align 4
  %41 = zext i32 %40 to i64
  %42 = lshr i64 %39, %41
  %43 = load i64, ptr %12, align 8
  %44 = icmp ne i64 %42, %43
  br i1 %44, label %51, label %45

45:                                               ; preds = %35, %32
  %46 = load i32, ptr %11, align 4
  %47 = icmp ugt i32 %46, 63
  br i1 %47, label %48, label %57

48:                                               ; preds = %45
  %49 = load i64, ptr %12, align 8
  %50 = icmp ne i64 %49, 0
  br i1 %50, label %51, label %57

51:                                               ; preds = %48, %35
  %52 = load ptr, ptr %8, align 8
  %53 = icmp ne ptr %52, null
  br i1 %53, label %54, label %56

54:                                               ; preds = %51
  %55 = load ptr, ptr %8, align 8
  store ptr @.str.156, ptr %55, align 8
  br label %56

56:                                               ; preds = %54, %51
  store i64 0, ptr %10, align 8
  br label %72

57:                                               ; preds = %48, %45, %24
  %58 = load i64, ptr %12, align 8
  %59 = load i32, ptr %11, align 4
  %60 = zext i32 %59 to i64
  %61 = shl i64 %58, %60
  %62 = load i64, ptr %10, align 8
  %63 = add i64 %62, %61
  store i64 %63, ptr %10, align 8
  %64 = load i32, ptr %11, align 4
  %65 = add i32 %64, 7
  store i32 %65, ptr %11, align 4
  br label %66

66:                                               ; preds = %57
  %67 = load ptr, ptr %5, align 8
  %68 = getelementptr inbounds i8, ptr %67, i32 1
  store ptr %68, ptr %5, align 8
  %69 = load i8, ptr %67, align 1
  %70 = zext i8 %69 to i32
  %71 = icmp sge i32 %70, 128
  br i1 %71, label %14, label %72, !llvm.loop !46

72:                                               ; preds = %66, %56, %23
  %73 = load ptr, ptr %6, align 8
  %74 = icmp ne ptr %73, null
  br i1 %74, label %75, label %83

75:                                               ; preds = %72
  %76 = load ptr, ptr %5, align 8
  %77 = load ptr, ptr %9, align 8
  %78 = ptrtoint ptr %76 to i64
  %79 = ptrtoint ptr %77 to i64
  %80 = sub i64 %78, %79
  %81 = trunc i64 %80 to i32
  %82 = load ptr, ptr %6, align 8
  store i32 %81, ptr %82, align 4
  br label %83

83:                                               ; preds = %75, %72
  %84 = load i64, ptr %10, align 8
  ret i64 %84
}

; Function Attrs: mustprogress nounwind uwtable
define internal noundef i64 @_ZL11readULEB128RN4llvm6object14WasmObjectFile11ReadContextE(ptr noundef nonnull align 8 dereferenceable(24) %0) #0 {
  %2 = alloca ptr, align 8
  %3 = alloca i32, align 4
  %4 = alloca ptr, align 8
  %5 = alloca i64, align 8
  store ptr %0, ptr %2, align 8
  store ptr null, ptr %4, align 8
  %6 = load ptr, ptr %2, align 8
  %7 = getelementptr inbounds nuw %"struct.llvm::object::WasmObjectFile::ReadContext", ptr %6, i32 0, i32 1
  %8 = load ptr, ptr %7, align 8
  %9 = load ptr, ptr %2, align 8
  %10 = getelementptr inbounds nuw %"struct.llvm::object::WasmObjectFile::ReadContext", ptr %9, i32 0, i32 2
  %11 = load ptr, ptr %10, align 8
  %12 = call noundef i64 @_ZN4llvm13decodeULEB128EPKhPjS1_PPKc(ptr noundef %8, ptr noundef %3, ptr noundef %11, ptr noundef %4)
  store i64 %12, ptr %5, align 8
  %13 = load ptr, ptr %4, align 8
  %14 = icmp ne ptr %13, null
  br i1 %14, label %15, label %17

15:                                               ; preds = %1
  %16 = load ptr, ptr %4, align 8
  call void @_ZN4llvm18report_fatal_errorEPKcb(ptr noundef %16, i1 noundef zeroext true) #14
  unreachable

17:                                               ; preds = %1
  %18 = load i32, ptr %3, align 4
  %19 = load ptr, ptr %2, align 8
  %20 = getelementptr inbounds nuw %"struct.llvm::object::WasmObjectFile::ReadContext", ptr %19, i32 0, i32 1
  %21 = load ptr, ptr %20, align 8
  %22 = zext i32 %18 to i64
  %23 = getelementptr inbounds i8, ptr %21, i64 %22
  store ptr %23, ptr %20, align 8
  %24 = load i64, ptr %5, align 8
  ret i64 %24
}

; Function Attrs: mustprogress nounwind uwtable
define internal noundef i64 @_ZL13readVaruint64RN4llvm6object14WasmObjectFile11ReadContextE(ptr noundef nonnull align 8 dereferenceable(24) %0) #0 {
  %2 = alloca ptr, align 8
  store ptr %0, ptr %2, align 8
  %3 = load ptr, ptr %2, align 8
  %4 = call noundef i64 @_ZL11readULEB128RN4llvm6object14WasmObjectFile11ReadContextE(ptr noundef nonnull align 8 dereferenceable(24) %3)
  ret i64 %4
}

; Function Attrs: mustprogress nounwind uwtable
define internal noundef i32 @_ZL13readVaruint32RN4llvm6object14WasmObjectFile11ReadContextE(ptr noundef nonnull align 8 dereferenceable(24) %0) #0 {
  %2 = alloca ptr, align 8
  %3 = alloca i64, align 8
  store ptr %0, ptr %2, align 8
  %4 = load ptr, ptr %2, align 8
  %5 = call noundef i64 @_ZL11readULEB128RN4llvm6object14WasmObjectFile11ReadContextE(ptr noundef nonnull align 8 dereferenceable(24) %4)
  store i64 %5, ptr %3, align 8
  %6 = load i64, ptr %3, align 8
  %7 = icmp ugt i64 %6, 4294967295
  br i1 %7, label %8, label %9

8:                                                ; preds = %1
  call void @_ZN4llvm18report_fatal_errorEPKcb(ptr noundef @.str.154, i1 noundef zeroext true) #14
  unreachable

9:                                                ; preds = %1
  %10 = load i64, ptr %3, align 8
  %11 = trunc i64 %10 to i32
  ret i32 %11
}

; Function Attrs: mustprogress nounwind uwtable
define internal void @_ZL10readLimitsRN4llvm6object14WasmObjectFile11ReadContextE(ptr dead_on_unwind noalias writable sret(%"struct.llvm::wasm::WasmLimits") align 8 %0, ptr noundef nonnull align 8 dereferenceable(24) %1) #0 {
  %3 = alloca ptr, align 8
  store ptr %1, ptr %3, align 8
  %4 = load ptr, ptr %3, align 8
  %5 = call noundef i32 @_ZL13readVaruint32RN4llvm6object14WasmObjectFile11ReadContextE(ptr noundef nonnull align 8 dereferenceable(24) %4)
  %6 = trunc i32 %5 to i8
  %7 = getelementptr inbounds nuw %"struct.llvm::wasm::WasmLimits", ptr %0, i32 0, i32 0
  store i8 %6, ptr %7, align 8
  %8 = load ptr, ptr %3, align 8
  %9 = call noundef i64 @_ZL13readVaruint64RN4llvm6object14WasmObjectFile11ReadContextE(ptr noundef nonnull align 8 dereferenceable(24) %8)
  %10 = getelementptr inbounds nuw %"struct.llvm::wasm::WasmLimits", ptr %0, i32 0, i32 1
  store i64 %9, ptr %10, align 8
  %11 = getelementptr inbounds nuw %"struct.llvm::wasm::WasmLimits", ptr %0, i32 0, i32 0
  %12 = load i8, ptr %11, align 8
  %13 = zext i8 %12 to i32
  %14 = and i32 %13, 1
  %15 = icmp ne i32 %14, 0
  br i1 %15, label %16, label %20

16:                                               ; preds = %2
  %17 = load ptr, ptr %3, align 8
  %18 = call noundef i64 @_ZL13readVaruint64RN4llvm6object14WasmObjectFile11ReadContextE(ptr noundef nonnull align 8 dereferenceable(24) %17)
  %19 = getelementptr inbounds nuw %"struct.llvm::wasm::WasmLimits", ptr %0, i32 0, i32 2
  store i64 %18, ptr %19, align 8
  br label %20

20:                                               ; preds = %16, %2
  ret void
}