; Function Attrs: mustprogress nounwind uwtable
define internal fastcc void @_ZL10readLimitsRN4llvm6object14WasmObjectFile11ReadContextE(ptr dead_on_unwind noalias nocapture writable writeonly align 8 %0, ptr nocapture noundef nonnull align 8 dereferenceable(24) %1) unnamed_addr #0 {
  %3 = getelementptr inbounds nuw i8, ptr %1, i64 8
  %4 = load ptr, ptr %3, align 8
  %5 = getelementptr inbounds nuw i8, ptr %1, i64 16
  %6 = load ptr, ptr %5, align 8
  br label %7

7:                                                ; preds = %16, %2
  %.027.i.i.i = phi i64 [ 0, %2 ], [ %19, %16 ]
  %.026.i.i.i = phi i32 [ 0, %2 ], [ %20, %16 ]
  %.0.i.i.i = phi ptr [ %4, %2 ], [ %21, %16 ]
  %8 = icmp eq ptr %.0.i.i.i, %6
  br i1 %8, label %23, label %9

9:                                                ; preds = %7
  %10 = load i8, ptr %.0.i.i.i, align 1
  %11 = and i8 %10, 127
  %12 = zext nneg i8 %11 to i64
  %13 = icmp ugt i32 %.026.i.i.i, 62
  br i1 %13, label %14, label %16

14:                                               ; preds = %9
  %.not37.i.i.i = icmp eq i32 %.026.i.i.i, 63
  %.not.i.i.i = icmp ugt i8 %11, 1
  %15 = icmp ne i8 %11, 0
  %or.cond36.i.i.i = select i1 %.not37.i.i.i, i1 %.not.i.i.i, i1 %15
  br i1 %or.cond36.i.i.i, label %23, label %16

16:                                               ; preds = %14, %9
  %17 = zext nneg i32 %.026.i.i.i to i64
  %18 = shl i64 %12, %17
  %19 = add i64 %18, %.027.i.i.i
  %20 = add i32 %.026.i.i.i, 7
  %21 = getelementptr inbounds i8, ptr %.0.i.i.i, i64 1
  %22 = icmp slt i8 %10, 0
  br i1 %22, label %7, label %_ZL11readULEB128RN4llvm6object14WasmObjectFile11ReadContextE.exit.i, !llvm.loop !38

23:                                               ; preds = %14, %7
  %.0.ph.i.i = phi ptr [ @.str.156, %14 ], [ @.str.155, %7 ]
  tail call void @_ZN4llvm18report_fatal_errorEPKcb(ptr noundef nonnull %.0.ph.i.i, i1 noundef zeroext true) #27
  unreachable

_ZL11readULEB128RN4llvm6object14WasmObjectFile11ReadContextE.exit.i: ; preds = %16
  %24 = ptrtoint ptr %4 to i64
  %25 = ptrtoint ptr %21 to i64
  %26 = sub i64 %25, %24
  %27 = and i64 %26, 4294967295
  %28 = getelementptr inbounds i8, ptr %4, i64 %27
  store ptr %28, ptr %3, align 8
  %29 = icmp ugt i64 %19, 4294967295
  br i1 %29, label %30, label %_ZL13readVaruint32RN4llvm6object14WasmObjectFile11ReadContextE.exit

30:                                               ; preds = %_ZL11readULEB128RN4llvm6object14WasmObjectFile11ReadContextE.exit.i
  tail call void @_ZN4llvm18report_fatal_errorEPKcb(ptr noundef nonnull @.str.154, i1 noundef zeroext true) #27
  unreachable

_ZL13readVaruint32RN4llvm6object14WasmObjectFile11ReadContextE.exit: ; preds = %_ZL11readULEB128RN4llvm6object14WasmObjectFile11ReadContextE.exit.i
  %31 = trunc i64 %19 to i8
  store i8 %31, ptr %0, align 8
  br label %32

32:                                               ; preds = %41, %_ZL13readVaruint32RN4llvm6object14WasmObjectFile11ReadContextE.exit
  %.027.i.i.i3 = phi i64 [ 0, %_ZL13readVaruint32RN4llvm6object14WasmObjectFile11ReadContextE.exit ], [ %44, %41 ]
  %.026.i.i.i4 = phi i32 [ 0, %_ZL13readVaruint32RN4llvm6object14WasmObjectFile11ReadContextE.exit ], [ %45, %41 ]
  %.0.i.i.i5 = phi ptr [ %28, %_ZL13readVaruint32RN4llvm6object14WasmObjectFile11ReadContextE.exit ], [ %46, %41 ]
  %33 = icmp eq ptr %.0.i.i.i5, %6
  br i1 %33, label %48, label %34

34:                                               ; preds = %32
  %35 = load i8, ptr %.0.i.i.i5, align 1
  %36 = and i8 %35, 127
  %37 = zext nneg i8 %36 to i64
  %38 = icmp ugt i32 %.026.i.i.i4, 62
  br i1 %38, label %39, label %41

39:                                               ; preds = %34
  %.not37.i.i.i7 = icmp eq i32 %.026.i.i.i4, 63
  %.not.i.i.i8 = icmp ugt i8 %36, 1
  %40 = icmp ne i8 %36, 0
  %or.cond36.i.i.i9 = select i1 %.not37.i.i.i7, i1 %.not.i.i.i8, i1 %40
  br i1 %or.cond36.i.i.i9, label %48, label %41

41:                                               ; preds = %39, %34
  %42 = zext nneg i32 %.026.i.i.i4 to i64
  %43 = shl i64 %37, %42
  %44 = add i64 %43, %.027.i.i.i3
  %45 = add i32 %.026.i.i.i4, 7
  %46 = getelementptr inbounds i8, ptr %.0.i.i.i5, i64 1
  %47 = icmp slt i8 %35, 0
  br i1 %47, label %32, label %_ZL13readVaruint64RN4llvm6object14WasmObjectFile11ReadContextE.exit, !llvm.loop !38

48:                                               ; preds = %39, %32
  %.0.ph.i.i10 = phi ptr [ @.str.156, %39 ], [ @.str.155, %32 ]
  tail call void @_ZN4llvm18report_fatal_errorEPKcb(ptr noundef nonnull %.0.ph.i.i10, i1 noundef zeroext true) #27
  unreachable

_ZL13readVaruint64RN4llvm6object14WasmObjectFile11ReadContextE.exit: ; preds = %41
  %49 = ptrtoint ptr %28 to i64
  %50 = ptrtoint ptr %46 to i64
  %51 = sub i64 %50, %49
  %52 = and i64 %51, 4294967295
  %53 = getelementptr inbounds i8, ptr %28, i64 %52
  store ptr %53, ptr %3, align 8
  %54 = getelementptr inbounds nuw i8, ptr %0, i64 8
  store i64 %44, ptr %54, align 8
  %55 = and i64 %19, 1
  %.not = icmp eq i64 %55, 0
  br i1 %.not, label %78, label %.preheader

.preheader:                                       ; preds = %_ZL13readVaruint64RN4llvm6object14WasmObjectFile11ReadContextE.exit, %64
  %.027.i.i.i11 = phi i64 [ %67, %64 ], [ 0, %_ZL13readVaruint64RN4llvm6object14WasmObjectFile11ReadContextE.exit ]
  %.026.i.i.i12 = phi i32 [ %68, %64 ], [ 0, %_ZL13readVaruint64RN4llvm6object14WasmObjectFile11ReadContextE.exit ]
  %.0.i.i.i13 = phi ptr [ %69, %64 ], [ %53, %_ZL13readVaruint64RN4llvm6object14WasmObjectFile11ReadContextE.exit ]
  %56 = icmp eq ptr %.0.i.i.i13, %6
  br i1 %56, label %71, label %57

57:                                               ; preds = %.preheader
  %58 = load i8, ptr %.0.i.i.i13, align 1
  %59 = and i8 %58, 127
  %60 = zext nneg i8 %59 to i64
  %61 = icmp ugt i32 %.026.i.i.i12, 62
  br i1 %61, label %62, label %64

62:                                               ; preds = %57
  %.not37.i.i.i15 = icmp eq i32 %.026.i.i.i12, 63
  %.not.i.i.i16 = icmp ugt i8 %59, 1
  %63 = icmp ne i8 %59, 0
  %or.cond36.i.i.i17 = select i1 %.not37.i.i.i15, i1 %.not.i.i.i16, i1 %63
  br i1 %or.cond36.i.i.i17, label %71, label %64

64:                                               ; preds = %62, %57
  %65 = zext nneg i32 %.026.i.i.i12 to i64
  %66 = shl i64 %60, %65
  %67 = add i64 %66, %.027.i.i.i11
  %68 = add i32 %.026.i.i.i12, 7
  %69 = getelementptr inbounds i8, ptr %.0.i.i.i13, i64 1
  %70 = icmp slt i8 %58, 0
  br i1 %70, label %.preheader, label %_ZL13readVaruint64RN4llvm6object14WasmObjectFile11ReadContextE.exit19, !llvm.loop !38

71:                                               ; preds = %62, %.preheader
  %.0.ph.i.i18 = phi ptr [ @.str.156, %62 ], [ @.str.155, %.preheader ]
  tail call void @_ZN4llvm18report_fatal_errorEPKcb(ptr noundef nonnull %.0.ph.i.i18, i1 noundef zeroext true) #27
  unreachable

_ZL13readVaruint64RN4llvm6object14WasmObjectFile11ReadContextE.exit19: ; preds = %64
  %72 = ptrtoint ptr %53 to i64
  %73 = ptrtoint ptr %69 to i64
  %74 = sub i64 %73, %72
  %75 = and i64 %74, 4294967295
  %76 = getelementptr inbounds i8, ptr %53, i64 %75
  store ptr %76, ptr %3, align 8
  %77 = getelementptr inbounds nuw i8, ptr %0, i64 16
  store i64 %67, ptr %77, align 8
  br label %78

78:                                               ; preds = %_ZL13readVaruint64RN4llvm6object14WasmObjectFile11ReadContextE.exit19, %_ZL13readVaruint64RN4llvm6object14WasmObjectFile11ReadContextE.exit
  ret void
}